; Function Attrs: inlinehint mustprogress nounwind uwtable
define internal fastcc void @_ZNSt4pairIN5Yosys5RTLIL6SigBitENS0_7hashlib4poolIPN12_GLOBAL__N_19GraphNodeENS3_8hash_opsIS7_EEEEED2Ev(ptr noundef nonnull readonly align 8 captures(none) dereferenceable(72) %0) unnamed_addr #4 align 2 personality ptr @__gxx_personality_v0 {
  %2 = getelementptr inbounds nuw i8, ptr %0, i64 16
  %3 = getelementptr inbounds nuw i8, ptr %0, i64 40
  %.val.i = load ptr, ptr %3, align 8
  %.not.i.i.i.i = icmp eq ptr %.val.i, null
  br i1 %.not.i.i.i.i, label %_ZNSt6vectorIN5Yosys7hashlib4poolIPN12_GLOBAL__N_19GraphNodeENS1_8hash_opsIS5_EEE7entry_tESaIS9_EED2Ev.exit.i, label %4

4:                                                ; preds = %1
  %5 = getelementptr inbounds nuw i8, ptr %0, i64 56
  %.val1.i = load ptr, ptr %5, align 8
  %6 = ptrtoint ptr %.val1.i to i64
  %7 = ptrtoint ptr %.val.i to i64
  %8 = sub i64 %6, %7
  tail call void @_ZdlPvm(ptr noundef nonnull %.val.i, i64 noundef %8) #33
  br label %_ZNSt6vectorIN5Yosys7hashlib4poolIPN12_GLOBAL__N_19GraphNodeENS1_8hash_opsIS5_EEE7entry_tESaIS9_EED2Ev.exit.i

_ZNSt6vectorIN5Yosys7hashlib4poolIPN12_GLOBAL__N_19GraphNodeENS1_8hash_opsIS5_EEE7entry_tESaIS9_EED2Ev.exit.i: ; preds = %4, %1
  %9 = load ptr, ptr %2, align 8, !tbaa !64
  %.not.i.i.i2.i = icmp eq ptr %9, null
  br i1 %.not.i.i.i2.i, label %_ZN5Yosys7hashlib4poolIPN12_GLOBAL__N_19GraphNodeENS0_8hash_opsIS4_EEED2Ev.exit, label %10

10:                                               ; preds = %_ZNSt6vectorIN5Yosys7hashlib4poolIPN12_GLOBAL__N_19GraphNodeENS1_8hash_opsIS5_EEE7entry_tESaIS9_EED2Ev.exit.i
  %11 = getelementptr inbounds nuw i8, ptr %0, i64 32
  %12 = load ptr, ptr %11, align 8, !tbaa !66
  %13 = ptrtoint ptr %12 to i64
  %14 = ptrtoint ptr %9 to i64
  %15 = sub i64 %13, %14
  tail call void @_ZdlPvm(ptr noundef nonnull %9, i64 noundef %15) #33
  br label %_ZN5Yosys7hashlib4poolIPN12_GLOBAL__N_19GraphNodeENS0_8hash_opsIS4_EEED2Ev.exit

_ZN5Yosys7hashlib4poolIPN12_GLOBAL__N_19GraphNodeENS0_8hash_opsIS4_EEED2Ev.exit: ; preds = %_ZNSt6vectorIN5Yosys7hashlib4poolIPN12_GLOBAL__N_19GraphNodeENS1_8hash_opsIS5_EEE7entry_tESaIS9_EED2Ev.exit.i, %10
  ret void
}